(lp0
(lp1
S'TO_LAB_NOOP_CC'
p2
aS'TO_LAB_RESET_STATUS_CC'
p3
aS'TO_LAB_ADD_PKT_CC'
p4
aS'TO_LAB_SEND_DATA_TYPES_CC'
p5
aS'TO_LAB_REMOVE_PKT_CC'
p6
aS'TO_LAB_REMOVE_ALL_PKT_CC'
p7
aS'TO_LAB_OUTPUT_ENABLE_CC'
p8
aa(lp9
S'0'
p10
aS'1'
p11
aS'2'
p12
aS'3'
p13
aS'4'
p14
aS'5'
p15
aS'6'
p16
aag1
a.